target datalayout = "e-m:e-p270:32:32-p271:32:32-p272:64:64-i64:64-i128:128-f80:128-n8:16:32:64-S128"
target triple = "x86_64-pc-linux-gnu"

%class.bit_vector = type { i32, i32, ptr }

; Function Attrs: mustprogress nounwind uwtable
define linkonce_odr hidden noundef i32 @_ZN10bit_vector9num_wordsEj(i32 noundef %0) #6 comdat align 2 {
  %2 = alloca i32, align 4
  store i32 %0, ptr %2, align 4, !tbaa !8
  %3 = load i32, ptr %2, align 4, !tbaa !8
  %4 = add i32 %3, 31
  %5 = udiv i32 %4, 32
  ret i32 %5
}

; Function Attrs: mustprogress nounwind uwtable
define linkonce_odr hidden noundef i32 @_ZNK10bit_vector9num_wordsEv(ptr noundef nonnull align 8 dereferenceable(16) %0) #6 comdat align 2 {
  %2 = alloca ptr, align 8
  store ptr %0, ptr %2, align 8, !tbaa !3
  %3 = load ptr, ptr %2, align 8
  %4 = getelementptr inbounds nuw %class.bit_vector, ptr %3, i32 0, i32 0
  %5 = load i32, ptr %4, align 8, !tbaa !16
  %6 = call noundef i32 @_ZN10bit_vector9num_wordsEj(i32 noundef %5)
  ret i32 %6
}

; Function Attrs: mustprogress uwtable
define hidden noundef nonnull align 8 dereferenceable(16) ptr @_ZN10bit_vector3negEv(ptr noundef nonnull align 8 dereferenceable(16) %0) #4 align 2 {
  %2 = alloca ptr, align 8
  %3 = alloca i32, align 4
  %4 = alloca i32, align 4
  store ptr %0, ptr %2, align 8, !tbaa !3
  %5 = load ptr, ptr %2, align 8
  call void @llvm.lifetime.start.p0(i64 4, ptr %3) #3
  %6 = call noundef i32 @_ZNK10bit_vector9num_wordsEv(ptr noundef nonnull align 8 dereferenceable(16) %5)
  store i32 %6, ptr %3, align 4, !tbaa !8
  call void @llvm.lifetime.start.p0(i64 4, ptr %4) #3
  store i32 0, ptr %4, align 4, !tbaa !8
  br label %7

7:                                                ; preds = %25, %1
  %8 = load i32, ptr %4, align 4, !tbaa !8
  %9 = load i32, ptr %3, align 4, !tbaa !8
  %10 = icmp ult i32 %8, %9
  br i1 %10, label %12, label %11

11:                                               ; preds = %7
  call void @llvm.lifetime.end.p0(i64 4, ptr %4) #3
  br label %28

12:                                               ; preds = %7
  %13 = getelementptr inbounds nuw %class.bit_vector, ptr %5, i32 0, i32 2
  %14 = load ptr, ptr %13, align 8, !tbaa !10
  %15 = load i32, ptr %4, align 4, !tbaa !8
  %16 = zext i32 %15 to i64
  %17 = getelementptr inbounds nuw i32, ptr %14, i64 %16
  %18 = load i32, ptr %17, align 4, !tbaa !8
  %19 = xor i32 %18, -1
  %20 = getelementptr inbounds nuw %class.bit_vector, ptr %5, i32 0, i32 2
  %21 = load ptr, ptr %20, align 8, !tbaa !10
  %22 = load i32, ptr %4, align 4, !tbaa !8
  %23 = zext i32 %22 to i64
  %24 = getelementptr inbounds nuw i32, ptr %21, i64 %23
  store i32 %19, ptr %24, align 4, !tbaa !8
  br label %25

25:                                               ; preds = %12
  %26 = load i32, ptr %4, align 4, !tbaa !8
  %27 = add i32 %26, 1
  store i32 %27, ptr %4, align 4, !tbaa !8
  br label %7, !llvm.loop !39

28:                                               ; preds = %11
  call void @llvm.lifetime.end.p0(i64 4, ptr %3) #3
  ret ptr %5
}