; Function Attrs: mustprogress nofree norecurse nosync nounwind memory(readwrite, inaccessiblemem: none) uwtable
define hidden noundef nonnull align 8 dereferenceable(16) ptr @_ZN10bit_vector3negEv(ptr noundef nonnull readonly returned align 8 captures(ret: address, provenance) dereferenceable(16) %0) local_unnamed_addr #6 align 2 {
  %2 = load i32, ptr %0, align 8, !tbaa !11
  %3 = add i32 %2, 31
  %.not = icmp ult i32 %3, 32
  br i1 %.not, label %._crit_edge, label %.lr.ph

.lr.ph:                                           ; preds = %1
  %4 = lshr i32 %3, 5
  %5 = getelementptr inbounds nuw i8, ptr %0, i64 8
  %6 = load ptr, ptr %5, align 8, !tbaa !3
  %wide.trip.count = zext nneg i32 %4 to i64
  br label %7

._crit_edge:                                      ; preds = %7, %1
  ret ptr %0

7:                                                ; preds = %.lr.ph, %7
  %indvars.iv = phi i64 [ 0, %.lr.ph ], [ %indvars.iv.next, %7 ]
  %8 = getelementptr inbounds nuw i32, ptr %6, i64 %indvars.iv
  %9 = load i32, ptr %8, align 4, !tbaa !12
  %10 = xor i32 %9, -1
  store i32 %10, ptr %8, align 4, !tbaa !12
  %indvars.iv.next = add nuw nsw i64 %indvars.iv, 1
  %exitcond.not = icmp eq i64 %indvars.iv.next, %wide.trip.count
  br i1 %exitcond.not, label %._crit_edge, label %7, !llvm.loop !24
}